target datalayout = "e-m:e-p270:32:32-p271:32:32-p272:64:64-i64:64-i128:128-f80:128-n8:16:32:64-S128"
target triple = "x86_64-pc-linux-gnu"

%"class.base::BasicStringPiece" = type { ptr, i64 }
%"class.net::QuicData" = type <{ ptr, ptr, i64, i8, [7 x i8] }>
%"class.net::QuicPacket" = type { %"class.net::QuicData.base", ptr, i32, i8, i8, i8, i8 }
%"class.net::QuicData.base" = type <{ ptr, ptr, i64, i8 }>

; Function Attrs: mustprogress nounwind uwtable
define noundef i64 @_ZN3net19GetPacketHeaderSizeENS_11QuicVersionENS_22QuicConnectionIdLengthEbbbNS_22QuicPacketNumberLengthE(i32 noundef %0, i32 noundef %1, i1 noundef zeroext %2, i1 noundef zeroext %3, i1 noundef zeroext %4, i8 noundef signext %5) #1 {
  %7 = alloca i32, align 4
  %8 = alloca i32, align 4
  %9 = alloca i8, align 1
  %10 = alloca i8, align 1
  %11 = alloca i8, align 1
  %12 = alloca i8, align 1
  store i32 %0, ptr %7, align 4, !tbaa !3
  store i32 %1, ptr %8, align 4, !tbaa !28
  %13 = zext i1 %2 to i8
  store i8 %13, ptr %9, align 1, !tbaa !29
  %14 = zext i1 %3 to i8
  store i8 %14, ptr %10, align 1, !tbaa !29
  %15 = zext i1 %4 to i8
  store i8 %15, ptr %11, align 1, !tbaa !29
  store i8 %5, ptr %12, align 1, !tbaa !30
  %16 = load i32, ptr %8, align 4, !tbaa !28
  %17 = zext i32 %16 to i64
  %18 = add i64 1, %17
  %19 = load i8, ptr %9, align 1, !tbaa !29, !range !23, !noundef !24
  %20 = trunc i8 %19 to i1
  %21 = select i1 %20, i64 4, i64 0
  %22 = add i64 %18, %21
  %23 = load i8, ptr %10, align 1, !tbaa !29, !range !23, !noundef !24
  %24 = trunc i8 %23 to i1
  %25 = select i1 %24, i64 1, i64 0
  %26 = add i64 %22, %25
  %27 = load i8, ptr %12, align 1, !tbaa !30
  %28 = sext i8 %27 to i64
  %29 = add i64 %26, %28
  %30 = load i8, ptr %11, align 1, !tbaa !29, !range !23, !noundef !24
  %31 = trunc i8 %30 to i1
  %32 = select i1 %31, i64 32, i64 0
  %33 = add i64 %29, %32
  %34 = load i32, ptr %7, align 4, !tbaa !3
  %35 = icmp sle i32 %34, 33
  %36 = select i1 %35, i64 1, i64 0
  %37 = add i64 %33, %36
  ret i64 %37
}

; Function Attrs: mustprogress nounwind uwtable
define available_externally void @_ZN4base16BasicStringPieceINSt7__cxx1112basic_stringIcSt11char_traitsIcESaIcEEEEC2EPKcm(ptr noundef nonnull align 8 dereferenceable(16) %0, ptr noundef %1, i64 noundef %2) unnamed_addr #1 align 2 {
  %4 = alloca ptr, align 8
  %5 = alloca ptr, align 8
  %6 = alloca i64, align 8
  store ptr %0, ptr %4, align 8, !tbaa !97
  store ptr %1, ptr %5, align 8, !tbaa !66
  store i64 %2, ptr %6, align 8, !tbaa !71
  %7 = load ptr, ptr %4, align 8
  %8 = getelementptr inbounds nuw %"class.base::BasicStringPiece", ptr %7, i32 0, i32 0
  %9 = load ptr, ptr %5, align 8, !tbaa !66
  store ptr %9, ptr %8, align 8, !tbaa !99
  %10 = getelementptr inbounds nuw %"class.base::BasicStringPiece", ptr %7, i32 0, i32 1
  %11 = load i64, ptr %6, align 8, !tbaa !71
  store i64 %11, ptr %10, align 8, !tbaa !101
  ret void
}

; Function Attrs: mustprogress nounwind uwtable
define noundef i64 @_ZN3net23GetStartOfEncryptedDataENS_11QuicVersionENS_22QuicConnectionIdLengthEbbbNS_22QuicPacketNumberLengthE(i32 noundef %0, i32 noundef %1, i1 noundef zeroext %2, i1 noundef zeroext %3, i1 noundef zeroext %4, i8 noundef signext %5) #1 {
  %7 = alloca i32, align 4
  %8 = alloca i32, align 4
  %9 = alloca i8, align 1
  %10 = alloca i8, align 1
  %11 = alloca i8, align 1
  %12 = alloca i8, align 1
  store i32 %0, ptr %7, align 4, !tbaa !3
  store i32 %1, ptr %8, align 4, !tbaa !28
  %13 = zext i1 %2 to i8
  store i8 %13, ptr %9, align 1, !tbaa !29
  %14 = zext i1 %3 to i8
  store i8 %14, ptr %10, align 1, !tbaa !29
  %15 = zext i1 %4 to i8
  store i8 %15, ptr %11, align 1, !tbaa !29
  store i8 %5, ptr %12, align 1, !tbaa !30
  %16 = load i32, ptr %7, align 4, !tbaa !3
  %17 = load i32, ptr %8, align 4, !tbaa !28
  %18 = load i8, ptr %9, align 1, !tbaa !29, !range !23, !noundef !24
  %19 = trunc i8 %18 to i1
  %20 = load i8, ptr %10, align 1, !tbaa !29, !range !23, !noundef !24
  %21 = trunc i8 %20 to i1
  %22 = load i8, ptr %11, align 1, !tbaa !29, !range !23, !noundef !24
  %23 = trunc i8 %22 to i1
  %24 = load i8, ptr %12, align 1, !tbaa !30
  %25 = call noundef i64 @_ZN3net19GetPacketHeaderSizeENS_11QuicVersionENS_22QuicConnectionIdLengthEbbbNS_22QuicPacketNumberLengthE(i32 noundef %16, i32 noundef %17, i1 noundef zeroext %19, i1 noundef zeroext %21, i1 noundef zeroext %23, i8 noundef signext %24)
  %26 = load i32, ptr %7, align 4, !tbaa !3
  %27 = icmp sle i32 %26, 33
  %28 = select i1 %27, i64 1, i64 0
  %29 = sub i64 %25, %28
  ret i64 %29
}

; Function Attrs: mustprogress nounwind uwtable
define linkonce_odr noundef ptr @_ZNK3net8QuicData4dataEv(ptr noundef nonnull align 8 dereferenceable(25) %0) #1 comdat align 2 {
  %2 = alloca ptr, align 8
  store ptr %0, ptr %2, align 8, !tbaa !257
  %3 = load ptr, ptr %2, align 8
  %4 = getelementptr inbounds nuw %"class.net::QuicData", ptr %3, i32 0, i32 1
  %5 = load ptr, ptr %4, align 8, !tbaa !259
  ret ptr %5
}

; Function Attrs: mustprogress uwtable
define { ptr, i64 } @_ZNK3net10QuicPacket14AssociatedDataB5cxx11ENS_11QuicVersionE(ptr noundef nonnull align 8 dereferenceable(48) %0, i32 noundef %1) #0 align 2 {
  %3 = alloca %"class.base::BasicStringPiece", align 8
  %4 = alloca ptr, align 8
  %5 = alloca i32, align 4
  store ptr %0, ptr %4, align 8, !tbaa !263
  store i32 %1, ptr %5, align 4, !tbaa !3
  %6 = load ptr, ptr %4, align 8
  %7 = call noundef ptr @_ZNK3net8QuicData4dataEv(ptr noundef nonnull align 8 dereferenceable(25) %6)
  %8 = load i32, ptr %5, align 4, !tbaa !3
  %9 = getelementptr inbounds nuw %"class.net::QuicPacket", ptr %6, i32 0, i32 2
  %10 = load i32, ptr %9, align 8, !tbaa !267
  %11 = getelementptr inbounds nuw %"class.net::QuicPacket", ptr %6, i32 0, i32 3
  %12 = load i8, ptr %11, align 4, !tbaa !268, !range !23, !noundef !24
  %13 = trunc i8 %12 to i1
  %14 = getelementptr inbounds nuw %"class.net::QuicPacket", ptr %6, i32 0, i32 4
  %15 = load i8, ptr %14, align 1, !tbaa !269, !range !23, !noundef !24
  %16 = trunc i8 %15 to i1
  %17 = getelementptr inbounds nuw %"class.net::QuicPacket", ptr %6, i32 0, i32 5
  %18 = load i8, ptr %17, align 2, !tbaa !270, !range !23, !noundef !24
  %19 = trunc i8 %18 to i1
  %20 = getelementptr inbounds nuw %"class.net::QuicPacket", ptr %6, i32 0, i32 6
  %21 = load i8, ptr %20, align 1, !tbaa !271
  %22 = call noundef i64 @_ZN3net23GetStartOfEncryptedDataENS_11QuicVersionENS_22QuicConnectionIdLengthEbbbNS_22QuicPacketNumberLengthE(i32 noundef %8, i32 noundef %10, i1 noundef zeroext %13, i1 noundef zeroext %16, i1 noundef zeroext %19, i8 noundef signext %21)
  call void @_ZN4base16BasicStringPieceINSt7__cxx1112basic_stringIcSt11char_traitsIcESaIcEEEEC2EPKcm(ptr noundef nonnull align 8 dereferenceable(16) %3, ptr noundef %7, i64 noundef %22)
  %23 = load { ptr, i64 }, ptr %3, align 8
  ret { ptr, i64 } %23
}