; Function Attrs: mustprogress nofree norecurse nosync nounwind willreturn memory(argmem: read) uwtable
define { ptr, i64 } @_ZNK3net10QuicPacket14AssociatedDataB5cxx11ENS_11QuicVersionE(ptr noundef nonnull readonly align 8 captures(none) dereferenceable(48) %0, i32 noundef %1) local_unnamed_addr #0 align 2 {
  %3 = getelementptr inbounds nuw i8, ptr %0, i64 8
  %4 = load ptr, ptr %3, align 8, !tbaa !204
  %5 = getelementptr inbounds nuw i8, ptr %0, i64 40
  %6 = load i32, ptr %5, align 8, !tbaa !210
  %7 = getelementptr inbounds nuw i8, ptr %0, i64 44
  %8 = load i8, ptr %7, align 4, !tbaa !211, !range !19, !noundef !20
  %9 = trunc nuw i8 %8 to i1
  %10 = getelementptr inbounds nuw i8, ptr %0, i64 45
  %11 = load i8, ptr %10, align 1, !tbaa !212, !range !19, !noundef !20
  %12 = zext nneg i8 %11 to i64
  %13 = getelementptr inbounds nuw i8, ptr %0, i64 46
  %14 = load i8, ptr %13, align 2, !tbaa !213, !range !19, !noundef !20
  %15 = trunc nuw i8 %14 to i1
  %16 = getelementptr inbounds nuw i8, ptr %0, i64 47
  %17 = load i8, ptr %16, align 1, !tbaa !214
  %18 = zext i32 %6 to i64
  %19 = select i1 %9, i64 4, i64 0
  %20 = sext i8 %17 to i64
  %21 = select i1 %15, i64 32, i64 0
  %22 = add nuw nsw i64 %18, 1
  %23 = add nuw nsw i64 %22, %19
  %24 = add nuw nsw i64 %23, %12
  %25 = add nuw nsw i64 %24, %21
  %26 = add nsw i64 %25, %20
  %.fca.0.insert = insertvalue { ptr, i64 } poison, ptr %4, 0
  %.fca.1.insert = insertvalue { ptr, i64 } %.fca.0.insert, i64 %26, 1
  ret { ptr, i64 } %.fca.1.insert
}